target datalayout = "e-m:e-p270:32:32-p271:32:32-p272:64:64-i64:64-i128:128-f80:128-n8:16:32:64-S128"
target triple = "x86_64-pc-linux-gnu"

%struct._zend_executor_globals = type { %struct._zval_struct, %struct._zval_struct, [32 x ptr], ptr, ptr, %struct._zend_array, %struct._zend_array, ptr, i32, i8, %struct._zval_struct, i32, ptr, ptr, ptr, ptr, ptr, ptr, i64, ptr, ptr, i32, ptr, i32, i64, i32, i32, i32, i8, i8, %struct.zend_atomic_bool_s, %struct.zend_atomic_bool_s, ptr, i64, ptr, ptr, %struct._zend_array, %struct._zend_array, i32, i8, %struct._zval_struct, %struct._zval_struct, %struct._zend_stack, %struct._zend_stack, %struct._zend_stack, ptr, i32, i32, i64, ptr, ptr, ptr, %struct._zend_objects_store, %struct._zend_lazy_objects_store, ptr, ptr, ptr, [3 x %struct._zend_op], ptr, i8, i8, i64, i32, i32, ptr, [16 x %struct._HashTableIterator], ptr, %union._zend_function, %struct._zend_op, %struct._zend_array, i64, %struct.zend_get_gc_buffer, ptr, ptr, ptr, i64, i8, i32, ptr, ptr, i64, %struct._zend_call_stack, i64, i64, %struct._zend_strtod_state, [6 x ptr] }
%struct.zend_atomic_bool_s = type { i8 }
%struct._zval_struct = type { %union._zend_value, %union.anon, %union.anon.2 }
%union._zend_value = type { i64 }
%union.anon = type { i32 }
%union.anon.2 = type { i32 }
%struct._zend_stack = type { i32, i32, i32, ptr }
%struct._zend_objects_store = type { ptr, i32, i32, i32 }
%struct._zend_lazy_objects_store = type { %struct._zend_array }
%struct._HashTableIterator = type { ptr, i32, i32 }
%union._zend_function = type { %struct._zend_op_array }
%struct._zend_op_array = type { i8, [3 x i8], i32, ptr, ptr, ptr, i32, i32, ptr, ptr, ptr, ptr, i32, ptr, i32, i32, i32, ptr, ptr, ptr, ptr, ptr, i32, i32, ptr, ptr, ptr, i32, i32, i32, i32, ptr, ptr, [6 x ptr] }
%struct._zend_op = type { ptr, %union._znode_op, %union._znode_op, %union._znode_op, i32, i32, i8, i8, i8, i8 }
%union._znode_op = type { i32 }
%struct._zend_array = type { %struct._zend_refcounted_h, %union.anon.4, i32, %union.anon.6, i32, i32, i32, i32, i64, ptr }
%struct._zend_refcounted_h = type { i32, %union.anon.3 }
%union.anon.3 = type { i32 }
%union.anon.4 = type { i32 }
%union.anon.6 = type { ptr }
%struct.zend_get_gc_buffer = type { ptr, ptr, ptr }
%struct._zend_call_stack = type { ptr, i64 }
%struct._zend_strtod_state = type { [8 x ptr], ptr, ptr }
%struct._zend_class_entry = type { i8, ptr, %union.anon.8, i32, i32, i32, i32, ptr, ptr, ptr, %struct._zend_array, %struct._zend_array, %struct._zend_array, ptr, ptr, ptr, ptr, ptr, ptr, ptr, ptr, ptr, ptr, ptr, ptr, ptr, ptr, ptr, ptr, ptr, ptr, ptr, %union.anon.9, ptr, ptr, ptr, ptr, i32, i32, i32, i32, %union.anon.10, ptr, ptr, ptr, ptr, i32, ptr, ptr, %union.anon.11 }
%union.anon.8 = type { ptr }
%union.anon.9 = type { ptr }
%union.anon.10 = type { ptr }
%union.anon.11 = type { %struct.anon.12 }
%struct.anon.12 = type { ptr, i32, i32 }
%struct._zend_execute_data = type { ptr, ptr, ptr, ptr, %struct._zval_struct, ptr, ptr, ptr, ptr }
%struct._pdo_dbh_t = type { ptr, ptr, ptr, ptr, i32, ptr, i64, [6 x i8], i32, i32, i32, ptr, i64, i32, [2 x ptr], ptr, ptr, %struct._zval_struct, ptr, ptr, i32 }
%struct._zend_object = type { %struct._zend_refcounted_h, i32, i32, ptr, ptr, ptr, [1 x %struct._zval_struct] }
%struct._zend_string = type { %struct._zend_refcounted_h, i64, i64, [1 x i8] }
%struct.pdo_sqlite_db_handle = type { ptr, %struct.pdo_sqlite_error_info, ptr, ptr }
%struct.pdo_sqlite_error_info = type { ptr, i32, i32, ptr }
%struct._pdo_dbh_object_t = type { ptr, %struct._zend_object }

@.str.3 = private unnamed_addr constant [2 x i8] c"p\00", align 1
@executor_globals = external global %struct._zend_executor_globals, align 8
@.str.4 = private unnamed_addr constant [27 x i8] c"%s object is uninitialized\00", align 1
@.str.5 = private unnamed_addr constant [30 x i8] c"Unable to load extension \22%s\22\00", align 1

; Function Attrs: inlinehint nounwind uwtable
define internal ptr @php_pdo_dbh_fetch_inner(ptr noundef %0) #4 {
  %2 = alloca ptr, align 8
  store ptr %0, ptr %2, align 8, !tbaa !79
  %3 = load ptr, ptr %2, align 8, !tbaa !79
  %4 = getelementptr inbounds i8, ptr %3, i64 -8
  %5 = getelementptr inbounds nuw %struct._pdo_dbh_object_t, ptr %4, i32 0, i32 0
  %6 = load ptr, ptr %5, align 8, !tbaa !80
  ret ptr %6
}

; Function Attrs: nounwind uwtable
define hidden void @zim_Pdo_Sqlite_loadExtension(ptr noundef %0, ptr noundef %1) #0 {
  %3 = alloca ptr, align 8
  %4 = alloca ptr, align 8
  %5 = alloca ptr, align 8
  %6 = alloca ptr, align 8
  %7 = alloca [4096 x i8], align 16
  %8 = alloca i64, align 8
  %9 = alloca ptr, align 8
  %10 = alloca ptr, align 8
  %11 = alloca i32, align 4
  %12 = alloca ptr, align 8
  store ptr %0, ptr %3, align 8, !tbaa !14
  store ptr %1, ptr %4, align 8, !tbaa !16
  call void @llvm.lifetime.start.p0(i64 8, ptr %5) #12
  call void @llvm.lifetime.start.p0(i64 8, ptr %6) #12
  store ptr null, ptr %6, align 8, !tbaa !18
  call void @llvm.lifetime.start.p0(i64 4096, ptr %7) #12
  call void @llvm.lifetime.start.p0(i64 8, ptr %8) #12
  call void @llvm.lifetime.start.p0(i64 8, ptr %9) #12
  call void @llvm.lifetime.start.p0(i64 8, ptr %10) #12
  %13 = load ptr, ptr %3, align 8, !tbaa !14
  %14 = getelementptr inbounds nuw %struct._zend_execute_data, ptr %13, i32 0, i32 4
  %15 = getelementptr inbounds nuw %struct._zval_struct, ptr %14, i32 0, i32 2
  %16 = load i32, ptr %15, align 4, !tbaa !11
  %17 = call i32 (i32, ptr, ...) @zend_parse_parameters(i32 noundef %16, ptr noundef @.str.3, ptr noundef %5, ptr noundef %8)
  %18 = icmp eq i32 %17, -1
  br i1 %18, label %19, label %25

19:                                               ; preds = %2
  br label %20

20:                                               ; preds = %19
  %21 = load ptr, ptr getelementptr inbounds nuw (%struct._zend_executor_globals, ptr @executor_globals, i32 0, i32 54), align 8, !tbaa !20
  %22 = icmp ne ptr %21, null
  call void @llvm.assume(i1 %22)
  store i32 1, ptr %11, align 4
  br label %103

23:                                               ; No predecessors!
  br label %24

24:                                               ; preds = %23
  br label %25

25:                                               ; preds = %24, %2
  %26 = load i64, ptr %8, align 8, !tbaa !49
  %27 = icmp eq i64 %26, 0
  br i1 %27, label %28, label %34

28:                                               ; preds = %25
  call void @zend_argument_must_not_be_empty_error(i32 noundef 1)
  br label %29

29:                                               ; preds = %28
  %30 = load ptr, ptr getelementptr inbounds nuw (%struct._zend_executor_globals, ptr @executor_globals, i32 0, i32 54), align 8, !tbaa !20
  %31 = icmp ne ptr %30, null
  call void @llvm.assume(i1 %31)
  store i32 1, ptr %11, align 4
  br label %103

32:                                               ; No predecessors!
  br label %33

33:                                               ; preds = %32
  br label %34

34:                                               ; preds = %33, %25
  %35 = load ptr, ptr %3, align 8, !tbaa !14
  %36 = getelementptr inbounds nuw %struct._zend_execute_data, ptr %35, i32 0, i32 4
  %37 = getelementptr inbounds nuw %struct._zval_struct, ptr %36, i32 0, i32 0
  %38 = load ptr, ptr %37, align 8, !tbaa !11
  %39 = call ptr @php_pdo_dbh_fetch_inner(ptr noundef %38)
  store ptr %39, ptr %9, align 8, !tbaa !50
  %40 = load ptr, ptr %9, align 8, !tbaa !50
  %41 = getelementptr inbounds nuw %struct._pdo_dbh_t, ptr %40, i32 0, i32 15
  %42 = load ptr, ptr %41, align 8, !tbaa !52
  %43 = icmp ne ptr %42, null
  br i1 %43, label %60, label %44

44:                                               ; preds = %34
  %45 = load ptr, ptr %3, align 8, !tbaa !14
  %46 = getelementptr inbounds nuw %struct._zend_execute_data, ptr %45, i32 0, i32 4
  %47 = getelementptr inbounds nuw %struct._zval_struct, ptr %46, i32 0, i32 0
  %48 = load ptr, ptr %47, align 8, !tbaa !11
  %49 = getelementptr inbounds nuw %struct._zend_object, ptr %48, i32 0, i32 3
  %50 = load ptr, ptr %49, align 8, !tbaa !56
  %51 = getelementptr inbounds nuw %struct._zend_class_entry, ptr %50, i32 0, i32 1
  %52 = load ptr, ptr %51, align 8, !tbaa !59
  %53 = getelementptr inbounds nuw %struct._zend_string, ptr %52, i32 0, i32 3
  %54 = getelementptr inbounds [1 x i8], ptr %53, i64 0, i64 0
  call void (ptr, ptr, ...) @zend_throw_error(ptr noundef null, ptr noundef @.str.4, ptr noundef %54)
  br label %55

55:                                               ; preds = %44
  %56 = load ptr, ptr getelementptr inbounds nuw (%struct._zend_executor_globals, ptr @executor_globals, i32 0, i32 54), align 8, !tbaa !20
  %57 = icmp ne ptr %56, null
  call void @llvm.assume(i1 %57)
  store i32 1, ptr %11, align 4
  br label %103

58:                                               ; No predecessors!
  br label %59

59:                                               ; preds = %58
  br label %60

60:                                               ; preds = %59, %34
  %61 = load ptr, ptr %9, align 8, !tbaa !50
  %62 = getelementptr inbounds nuw %struct._pdo_dbh_t, ptr %61, i32 0, i32 1
  %63 = load ptr, ptr %62, align 8, !tbaa !70
  store ptr %63, ptr %10, align 8, !tbaa !71
  %64 = load ptr, ptr %5, align 8, !tbaa !18
  %65 = getelementptr inbounds [4096 x i8], ptr %7, i64 0, i64 0
  %66 = call ptr @tsrm_realpath(ptr noundef %64, ptr noundef %65)
  %67 = icmp ne ptr %66, null
  br i1 %67, label %77, label %68

68:                                               ; preds = %60
  %69 = call ptr @php_pdo_get_exception()
  %70 = load ptr, ptr %5, align 8, !tbaa !18
  %71 = call ptr (ptr, i64, ptr, ...) @zend_throw_exception_ex(ptr noundef %69, i64 noundef 0, ptr noundef @.str.5, ptr noundef %70)
  br label %72

72:                                               ; preds = %68
  %73 = load ptr, ptr getelementptr inbounds nuw (%struct._zend_executor_globals, ptr @executor_globals, i32 0, i32 54), align 8, !tbaa !20
  %74 = icmp ne ptr %73, null
  call void @llvm.assume(i1 %74)
  store i32 1, ptr %11, align 4
  br label %103

75:                                               ; No predecessors!
  br label %76

76:                                               ; preds = %75
  br label %77

77:                                               ; preds = %76, %60
  call void @llvm.lifetime.start.p0(i64 8, ptr %12) #12
  %78 = load ptr, ptr %10, align 8, !tbaa !71
  %79 = getelementptr inbounds nuw %struct.pdo_sqlite_db_handle, ptr %78, i32 0, i32 0
  %80 = load ptr, ptr %79, align 8, !tbaa !72
  store ptr %80, ptr %12, align 8, !tbaa !78
  %81 = load ptr, ptr %12, align 8, !tbaa !78
  %82 = call i32 (ptr, i32, ...) @sqlite3_db_config(ptr noundef %81, i32 noundef 1005, i32 noundef 1, ptr noundef null)
  %83 = load ptr, ptr %12, align 8, !tbaa !78
  %84 = getelementptr inbounds [4096 x i8], ptr %7, i64 0, i64 0
  %85 = call i32 @sqlite3_load_extension(ptr noundef %83, ptr noundef %84, ptr noundef null, ptr noundef %6)
  %86 = icmp ne i32 %85, 0
  br i1 %86, label %87, label %99

87:                                               ; preds = %77
  %88 = call ptr @php_pdo_get_exception()
  %89 = load ptr, ptr %6, align 8, !tbaa !18
  %90 = call ptr (ptr, i64, ptr, ...) @zend_throw_exception_ex(ptr noundef %88, i64 noundef 0, ptr noundef @.str.5, ptr noundef %89)
  %91 = load ptr, ptr %6, align 8, !tbaa !18
  call void @sqlite3_free(ptr noundef %91)
  %92 = load ptr, ptr %12, align 8, !tbaa !78
  %93 = call i32 (ptr, i32, ...) @sqlite3_db_config(ptr noundef %92, i32 noundef 1005, i32 noundef 0, ptr noundef null)
  br label %94

94:                                               ; preds = %87
  %95 = load ptr, ptr getelementptr inbounds nuw (%struct._zend_executor_globals, ptr @executor_globals, i32 0, i32 54), align 8, !tbaa !20
  %96 = icmp ne ptr %95, null
  call void @llvm.assume(i1 %96)
  store i32 1, ptr %11, align 4
  br label %102

97:                                               ; No predecessors!
  br label %98

98:                                               ; preds = %97
  br label %99

99:                                               ; preds = %98, %77
  %100 = load ptr, ptr %12, align 8, !tbaa !78
  %101 = call i32 (ptr, i32, ...) @sqlite3_db_config(ptr noundef %100, i32 noundef 1005, i32 noundef 0, ptr noundef null)
  store i32 0, ptr %11, align 4
  br label %102

102:                                              ; preds = %99, %94
  call void @llvm.lifetime.end.p0(i64 8, ptr %12) #12
  br label %103

103:                                              ; preds = %102, %72, %55, %29, %20
  call void @llvm.lifetime.end.p0(i64 8, ptr %10) #12
  call void @llvm.lifetime.end.p0(i64 8, ptr %9) #12
  call void @llvm.lifetime.end.p0(i64 8, ptr %8) #12
  call void @llvm.lifetime.end.p0(i64 4096, ptr %7) #12
  call void @llvm.lifetime.end.p0(i64 8, ptr %6) #12
  call void @llvm.lifetime.end.p0(i64 8, ptr %5) #12
  %104 = load i32, ptr %11, align 4
  switch i32 %104, label %106 [
    i32 0, label %105
    i32 1, label %105
  ]

105:                                              ; preds = %103, %103
  ret void

106:                                              ; preds = %103
  unreachable
}