; Function Attrs: nounwind uwtable
define hidden void @zim_Pdo_Sqlite_loadExtension(ptr noundef readonly captures(none) %0, ptr readnone captures(none) %1) #0 {
  %3 = alloca ptr, align 8
  %4 = alloca ptr, align 8
  %5 = alloca [4096 x i8], align 16
  %6 = alloca i64, align 8
  call void @llvm.lifetime.start.p0(i64 8, ptr nonnull %3) #11
  call void @llvm.lifetime.start.p0(i64 8, ptr nonnull %4) #11
  store ptr null, ptr %4, align 8, !tbaa !35
  call void @llvm.lifetime.start.p0(i64 4096, ptr nonnull %5) #11
  call void @llvm.lifetime.start.p0(i64 8, ptr nonnull %6) #11
  %7 = getelementptr inbounds nuw i8, ptr %0, i64 32
  %8 = getelementptr inbounds nuw i8, ptr %0, i64 44
  %9 = load i32, ptr %8, align 4, !tbaa !30
  %10 = call i32 (i32, ptr, ...) @zend_parse_parameters(i32 noundef %9, ptr noundef nonnull @.str.3, ptr noundef nonnull %3, ptr noundef nonnull %6) #11
  %11 = icmp eq i32 %10, -1
  br i1 %11, label %12, label %15

12:                                               ; preds = %2
  %13 = load ptr, ptr getelementptr inbounds nuw (i8, ptr @executor_globals, i64 960), align 8, !tbaa !37
  %14 = icmp ne ptr %13, null
  call void @llvm.assume(i1 %14)
  br label %59

15:                                               ; preds = %2
  %16 = load i64, ptr %6, align 8, !tbaa !63
  %17 = icmp eq i64 %16, 0
  br i1 %17, label %18, label %21

18:                                               ; preds = %15
  call void @zend_argument_must_not_be_empty_error(i32 noundef 1) #11
  %19 = load ptr, ptr getelementptr inbounds nuw (i8, ptr @executor_globals, i64 960), align 8, !tbaa !37
  %20 = icmp ne ptr %19, null
  call void @llvm.assume(i1 %20)
  br label %59

21:                                               ; preds = %15
  %22 = load ptr, ptr %7, align 8, !tbaa !30
  %23 = getelementptr i8, ptr %22, i64 -8
  %.val = load ptr, ptr %23, align 8, !tbaa !64
  %24 = getelementptr inbounds nuw i8, ptr %.val, i64 120
  %25 = load ptr, ptr %24, align 8, !tbaa !68
  %.not = icmp eq ptr %25, null
  br i1 %.not, label %26, label %34

26:                                               ; preds = %21
  %27 = getelementptr inbounds nuw i8, ptr %22, i64 16
  %28 = load ptr, ptr %27, align 8, !tbaa !72
  %29 = getelementptr inbounds nuw i8, ptr %28, i64 8
  %30 = load ptr, ptr %29, align 8, !tbaa !10
  %31 = getelementptr inbounds nuw i8, ptr %30, i64 24
  call void (ptr, ptr, ...) @zend_throw_error(ptr noundef null, ptr noundef nonnull @.str.4, ptr noundef nonnull %31) #11
  %32 = load ptr, ptr getelementptr inbounds nuw (i8, ptr @executor_globals, i64 960), align 8, !tbaa !37
  %33 = icmp ne ptr %32, null
  call void @llvm.assume(i1 %33)
  br label %59

34:                                               ; preds = %21
  %35 = getelementptr inbounds nuw i8, ptr %.val, i64 8
  %36 = load ptr, ptr %35, align 8, !tbaa !73
  %37 = load ptr, ptr %3, align 8, !tbaa !35
  %38 = call ptr @tsrm_realpath(ptr noundef %37, ptr noundef nonnull %5) #11
  %.not10 = icmp eq ptr %38, null
  br i1 %.not10, label %39, label %45

39:                                               ; preds = %34
  %40 = call ptr @php_pdo_get_exception() #11
  %41 = load ptr, ptr %3, align 8, !tbaa !35
  %42 = call ptr (ptr, i64, ptr, ...) @zend_throw_exception_ex(ptr noundef %40, i64 noundef 0, ptr noundef nonnull @.str.5, ptr noundef %41) #11
  %43 = load ptr, ptr getelementptr inbounds nuw (i8, ptr @executor_globals, i64 960), align 8, !tbaa !37
  %44 = icmp ne ptr %43, null
  call void @llvm.assume(i1 %44)
  br label %59

45:                                               ; preds = %34
  %46 = load ptr, ptr %36, align 8, !tbaa !74
  %47 = call i32 (ptr, i32, ...) @sqlite3_db_config(ptr noundef %46, i32 noundef 1005, i32 noundef 1, ptr noundef null) #11
  %48 = call i32 @sqlite3_load_extension(ptr noundef %46, ptr noundef nonnull %5, ptr noundef null, ptr noundef nonnull %4) #11
  %.not11 = icmp eq i32 %48, 0
  br i1 %.not11, label %57, label %49

49:                                               ; preds = %45
  %50 = call ptr @php_pdo_get_exception() #11
  %51 = load ptr, ptr %4, align 8, !tbaa !35
  %52 = call ptr (ptr, i64, ptr, ...) @zend_throw_exception_ex(ptr noundef %50, i64 noundef 0, ptr noundef nonnull @.str.5, ptr noundef %51) #11
  %53 = load ptr, ptr %4, align 8, !tbaa !35
  call void @sqlite3_free(ptr noundef %53) #11
  %54 = call i32 (ptr, i32, ...) @sqlite3_db_config(ptr noundef %46, i32 noundef 1005, i32 noundef 0, ptr noundef null) #11
  %55 = load ptr, ptr getelementptr inbounds nuw (i8, ptr @executor_globals, i64 960), align 8, !tbaa !37
  %56 = icmp ne ptr %55, null
  call void @llvm.assume(i1 %56)
  br label %59

57:                                               ; preds = %45
  %58 = call i32 (ptr, i32, ...) @sqlite3_db_config(ptr noundef %46, i32 noundef 1005, i32 noundef 0, ptr noundef null) #11
  br label %59

59:                                               ; preds = %49, %57, %39, %26, %18, %12
  call void @llvm.lifetime.end.p0(i64 8, ptr nonnull %6) #11
  call void @llvm.lifetime.end.p0(i64 4096, ptr nonnull %5) #11
  call void @llvm.lifetime.end.p0(i64 8, ptr nonnull %4) #11
  call void @llvm.lifetime.end.p0(i64 8, ptr nonnull %3) #11
  ret void
}